; Function Attrs: null_pointer_is_valid sspstrong uwtable
define internal void @tele_param_reply_opt(ptr noundef %0, ptr noundef %1, ptr noundef %2, i32 noundef %3, i32 noundef %4, ptr readnone captures(none) %5) #0 {
  %.not = icmp eq i32 %3, 1
  br i1 %.not, label %9, label %7

7:                                                ; preds = %6
  %8 = tail call ptr @proto_tree_add_expert(ptr noundef %2, ptr noundef %1, ptr noundef nonnull @ei_ansi_637_unexpected_length, ptr noundef %0, i32 noundef %4, i32 noundef %3)
  br label %20

9:                                                ; preds = %6
  %10 = load i32, ptr @hf_ansi_637_tele_reply_option_user_ack_req, align 4
  %11 = tail call ptr @proto_tree_add_item(ptr noundef %2, i32 noundef %10, ptr noundef %0, i32 noundef %4, i32 noundef 1, i32 noundef 0)
  %12 = load i32, ptr @hf_ansi_637_tele_reply_option_dak_req, align 4
  %13 = tail call ptr @proto_tree_add_item(ptr noundef %2, i32 noundef %12, ptr noundef %0, i32 noundef %4, i32 noundef 1, i32 noundef 0)
  %14 = load i32, ptr @hf_ansi_637_tele_reply_option_read_ack_req, align 4
  %15 = tail call ptr @proto_tree_add_item(ptr noundef %2, i32 noundef %14, ptr noundef %0, i32 noundef %4, i32 noundef 1, i32 noundef 0)
  %16 = load i32, ptr @hf_ansi_637_tele_reply_option_report_req, align 4
  %17 = tail call ptr @proto_tree_add_item(ptr noundef %2, i32 noundef %16, ptr noundef %0, i32 noundef %4, i32 noundef 1, i32 noundef 0)
  %18 = load i32, ptr @hf_ansi_637_reserved_bits_8_0f, align 4
  %19 = tail call ptr @proto_tree_add_item(ptr noundef %2, i32 noundef %18, ptr noundef %0, i32 noundef %4, i32 noundef 1, i32 noundef 0)
  br label %20

20:                                               ; preds = %9, %7
  ret void
}